target datalayout = "e-m:e-p270:32:32-p271:32:32-p272:64:64-i64:64-i128:128-f80:128-n8:16:32:64-S128"
target triple = "x86_64-pc-linux-gnu"

%class.QString = type { ptr }
%class.EditMutualCorrsPlugin = type { %class.QObject, %class.EditTool, %class.QPoint, %class.QFont, ptr, ptr, %"class.std::vector.16", %"class.std::vector.20", %"class.std::vector.25", %"class.std::vector.30", %"class.std::vector.35", i32, %class.QString, %class.QString, %class.QString, %class.QString, %class.AlignSet }
%class.QObject = type { ptr, %class.QScopedPointer }
%class.QScopedPointer = type { ptr }
%class.EditTool = type { %class.MeshLabPluginLogger }
%class.MeshLabPluginLogger = type { ptr, ptr }
%class.QPoint = type { i32, i32 }
%class.QFont = type <{ %class.QExplicitlySharedDataPointer, i32, [4 x i8] }>
%class.QExplicitlySharedDataPointer = type { ptr }
%"class.std::vector.16" = type { %"struct.std::_Bvector_base" }
%"struct.std::_Bvector_base" = type { %"struct.std::_Bvector_base<std::allocator<bool>>::_Bvector_impl" }
%"struct.std::_Bvector_base<std::allocator<bool>>::_Bvector_impl" = type { %"struct.std::_Bvector_base<std::allocator<bool>>::_Bvector_impl_data" }
%"struct.std::_Bvector_base<std::allocator<bool>>::_Bvector_impl_data" = type { %"struct.std::_Bit_iterator", %"struct.std::_Bit_iterator", ptr }
%"struct.std::_Bit_iterator" = type { %"struct.std::_Bit_iterator_base.base", [4 x i8] }
%"struct.std::_Bit_iterator_base.base" = type <{ ptr, i32 }>
%"class.std::vector.20" = type { %"struct.std::_Vector_base.21" }
%"struct.std::_Vector_base.21" = type { %"struct.std::_Vector_base<QString, std::allocator<QString>>::_Vector_impl" }
%"struct.std::_Vector_base<QString, std::allocator<QString>>::_Vector_impl" = type { %"struct.std::_Vector_base<QString, std::allocator<QString>>::_Vector_impl_data" }
%"struct.std::_Vector_base<QString, std::allocator<QString>>::_Vector_impl_data" = type { ptr, ptr, ptr }
%"class.std::vector.25" = type { %"struct.std::_Vector_base.26" }
%"struct.std::_Vector_base.26" = type { %"struct.std::_Vector_base<vcg::Point3<float>, std::allocator<vcg::Point3<float>>>::_Vector_impl" }
%"struct.std::_Vector_base<vcg::Point3<float>, std::allocator<vcg::Point3<float>>>::_Vector_impl" = type { %"struct.std::_Vector_base<vcg::Point3<float>, std::allocator<vcg::Point3<float>>>::_Vector_impl_data" }
%"struct.std::_Vector_base<vcg::Point3<float>, std::allocator<vcg::Point3<float>>>::_Vector_impl_data" = type { ptr, ptr, ptr }
%"class.std::vector.30" = type { %"struct.std::_Vector_base.31" }
%"struct.std::_Vector_base.31" = type { %"struct.std::_Vector_base<vcg::Point2<float>, std::allocator<vcg::Point2<float>>>::_Vector_impl" }
%"struct.std::_Vector_base<vcg::Point2<float>, std::allocator<vcg::Point2<float>>>::_Vector_impl" = type { %"struct.std::_Vector_base<vcg::Point2<float>, std::allocator<vcg::Point2<float>>>::_Vector_impl_data" }
%"struct.std::_Vector_base<vcg::Point2<float>, std::allocator<vcg::Point2<float>>>::_Vector_impl_data" = type { ptr, ptr, ptr }
%"class.std::vector.35" = type { %"struct.std::_Vector_base.36" }
%"struct.std::_Vector_base.36" = type { %"struct.std::_Vector_base<double, std::allocator<double>>::_Vector_impl" }
%"struct.std::_Vector_base<double, std::allocator<double>>::_Vector_impl" = type { %"struct.std::_Vector_base<double, std::allocator<double>>::_Vector_impl_data" }
%"struct.std::_Vector_base<double, std::allocator<double>>::_Vector_impl_data" = type { ptr, ptr, ptr }
%class.AlignSet = type { i32, i32, ptr, ptr, double, %"class.vcg::Shot", %"class.vcg::Box3", %"class.std::vector.42", double, i32, i32, i32, i32, [6 x i32], i32, ptr, ptr }
%"class.vcg::Shot" = type { %"class.vcg::Camera", %"class.vcg::Shot<float>::ReferenceFrame" }
%"class.vcg::Camera" = type { float, %"class.vcg::Point2", %"class.vcg::Point2.40", %"class.vcg::Point2.40", %"class.vcg::Point2.40", %"struct.std::array", i32 }
%"class.vcg::Point2" = type { [2 x i32] }
%"class.vcg::Point2.40" = type { [2 x float] }
%"struct.std::array" = type { [4 x float] }
%"class.vcg::Shot<float>::ReferenceFrame" = type { %"class.vcg::Matrix44", %"class.vcg::Point3" }
%"class.vcg::Matrix44" = type { %"struct.std::array.41" }
%"struct.std::array.41" = type { [16 x float] }
%"class.vcg::Point3" = type { [3 x float] }
%"class.vcg::Box3" = type { %"class.vcg::Point3", %"class.vcg::Point3" }
%"class.std::vector.42" = type { %"struct.std::_Vector_base.43" }
%"struct.std::_Vector_base.43" = type { %"struct.std::_Vector_base<Correspondence, std::allocator<Correspondence>>::_Vector_impl" }
%"struct.std::_Vector_base<Correspondence, std::allocator<Correspondence>>::_Vector_impl" = type { %"struct.std::_Vector_base<Correspondence, std::allocator<Correspondence>>::_Vector_impl_data" }
%"struct.std::_Vector_base<Correspondence, std::allocator<Correspondence>>::_Vector_impl_data" = type { ptr, ptr, ptr }

@.str.64 = private unnamed_addr constant [18 x i8] c"GL Initialization\00", align 1
@.str.65 = private unnamed_addr constant [27 x i8] c"GLEW initialization error!\00", align 1
@.str.66 = private unnamed_addr constant [26 x i8] c"GL_EXT_framebuffer_object\00", align 1
@.str.67 = private unnamed_addr constant [40 x i8] c"Graphics hardware does not support FBOs\00", align 1
@.str.68 = private unnamed_addr constant [21 x i8] c"GL_ARB_vertex_shader\00", align 1
@.str.69 = private unnamed_addr constant [23 x i8] c"GL_ARB_fragment_shader\00", align 1
@.str.70 = private unnamed_addr constant [22 x i8] c"GL_ARB_shader_objects\00", align 1
@.str.71 = private unnamed_addr constant [24 x i8] c"GL_ARB_shading_language\00", align 1
@.str.72 = private unnamed_addr constant [32 x i8] c"GL_ARB_texture_non_power_of_two\00", align 1
@.str.73 = private unnamed_addr constant [61 x i8] c"Graphics hardware does not support non-power-of-two textures\00", align 1
@.str.74 = private unnamed_addr constant [28 x i8] c"GL_ARB_vertex_buffer_object\00", align 1
@.str.75 = private unnamed_addr constant [57 x i8] c"Graphics hardware does not support vertex buffer objects\00", align 1
@.str.76 = private unnamed_addr constant [23 x i8] c"GL Initialization done\00", align 1

; Function Attrs: mustprogress uwtable
define noundef zeroext i1 @_ZN21EditMutualCorrsPlugin6initGLEv(ptr noundef nonnull align 8 dereferenceable(536) %0) #5 align 2 {
  %2 = alloca i1, align 1
  %3 = alloca ptr, align 8
  store ptr %0, ptr %3, align 8
  %4 = load ptr, ptr %3, align 8
  %5 = getelementptr inbounds i8, ptr %4, i64 16
  call void @_ZNK19MeshLabPluginLogger3logEN11GLLogStream6LevelsEPKc(ptr noundef nonnull align 8 dereferenceable(16) %5, i32 noundef 0, ptr noundef @.str.64)
  %6 = call noundef zeroext i1 @_ZN19GLExtensionsManager34initializeGLextensions_notThrowingEv()
  br i1 %6, label %9, label %7

7:                                                ; preds = %1
  %8 = getelementptr inbounds i8, ptr %4, i64 16
  call void @_ZNK19MeshLabPluginLogger3logEN11GLLogStream6LevelsEPKc(ptr noundef nonnull align 8 dereferenceable(16) %8, i32 noundef 0, ptr noundef @.str.65)
  store i1 false, ptr %2, align 1
  br label %41

9:                                                ; preds = %1
  %10 = call zeroext i8 @glewIsSupported(ptr noundef @.str.66)
  %11 = icmp ne i8 %10, 0
  br i1 %11, label %14, label %12

12:                                               ; preds = %9
  %13 = getelementptr inbounds i8, ptr %4, i64 16
  call void @_ZNK19MeshLabPluginLogger3logEN11GLLogStream6LevelsEPKc(ptr noundef nonnull align 8 dereferenceable(16) %13, i32 noundef 0, ptr noundef @.str.67)
  store i1 false, ptr %2, align 1
  br label %41

14:                                               ; preds = %9
  %15 = call zeroext i8 @glewIsSupported(ptr noundef @.str.68)
  %16 = icmp ne i8 %15, 0
  br i1 %16, label %17, label %26

17:                                               ; preds = %14
  %18 = call zeroext i8 @glewIsSupported(ptr noundef @.str.69)
  %19 = icmp ne i8 %18, 0
  br i1 %19, label %20, label %26

20:                                               ; preds = %17
  %21 = call zeroext i8 @glewIsSupported(ptr noundef @.str.70)
  %22 = icmp ne i8 %21, 0
  br i1 %22, label %23, label %26

23:                                               ; preds = %20
  %24 = call zeroext i8 @glewIsSupported(ptr noundef @.str.71)
  %25 = icmp ne i8 %24, 0
  br i1 %25, label %27, label %26

26:                                               ; preds = %23, %20, %17, %14
  br label %27

27:                                               ; preds = %26, %23
  %28 = call zeroext i8 @glewIsSupported(ptr noundef @.str.72)
  %29 = icmp ne i8 %28, 0
  br i1 %29, label %32, label %30

30:                                               ; preds = %27
  %31 = getelementptr inbounds i8, ptr %4, i64 16
  call void @_ZNK19MeshLabPluginLogger3logEN11GLLogStream6LevelsEPKc(ptr noundef nonnull align 8 dereferenceable(16) %31, i32 noundef 0, ptr noundef @.str.73)
  store i1 false, ptr %2, align 1
  br label %41

32:                                               ; preds = %27
  %33 = call zeroext i8 @glewIsSupported(ptr noundef @.str.74)
  %34 = icmp ne i8 %33, 0
  br i1 %34, label %37, label %35

35:                                               ; preds = %32
  %36 = getelementptr inbounds i8, ptr %4, i64 16
  call void @_ZNK19MeshLabPluginLogger3logEN11GLLogStream6LevelsEPKc(ptr noundef nonnull align 8 dereferenceable(16) %36, i32 noundef 0, ptr noundef @.str.75)
  store i1 false, ptr %2, align 1
  br label %41

37:                                               ; preds = %32
  call void @glEnable(i32 noundef 2977)
  call void @glDepthRange(double noundef 0.000000e+00, double noundef 1.000000e+00)
  call void @glHint(i32 noundef 3155, i32 noundef 4354)
  call void @glEnable(i32 noundef 2881)
  call void @glShadeModel(i32 noundef 7425)
  call void @glDisable(i32 noundef 2881)
  %38 = getelementptr inbounds %class.EditMutualCorrsPlugin, ptr %4, i32 0, i32 16
  call void @_ZN8AlignSet12initializeGLEv(ptr noundef nonnull align 8 dereferenceable(288) %38)
  %39 = getelementptr inbounds %class.EditMutualCorrsPlugin, ptr %4, i32 0, i32 16
  call void @_ZN8AlignSet6resizeEi(ptr noundef nonnull align 8 dereferenceable(288) %39, i32 noundef 800)
  %40 = getelementptr inbounds i8, ptr %4, i64 16
  call void @_ZNK19MeshLabPluginLogger3logEN11GLLogStream6LevelsEPKc(ptr noundef nonnull align 8 dereferenceable(16) %40, i32 noundef 0, ptr noundef @.str.76)
  store i1 true, ptr %2, align 1
  br label %41

41:                                               ; preds = %37, %35, %30, %12, %7
  %42 = load i1, ptr %2, align 1
  ret i1 %42
}