; Function Attrs: mustprogress uwtable
define noundef zeroext i1 @_ZN21EditMutualCorrsPlugin6initGLEv(ptr noundef nonnull align 8 dereferenceable(536) %0) local_unnamed_addr #9 align 2 {
  %2 = getelementptr inbounds i8, ptr %0, i64 16
  tail call void @_ZNK19MeshLabPluginLogger3logEN11GLLogStream6LevelsEPKc(ptr noundef nonnull align 8 dereferenceable(16) %2, i32 noundef 0, ptr noundef nonnull @.str.64)
  %3 = tail call noundef zeroext i1 @_ZN19GLExtensionsManager34initializeGLextensions_notThrowingEv()
  br i1 %3, label %4, label %20

4:                                                ; preds = %1
  %5 = tail call zeroext i8 @glewIsSupported(ptr noundef nonnull @.str.66)
  %.not = icmp eq i8 %5, 0
  br i1 %.not, label %20, label %6

6:                                                ; preds = %4
  %7 = tail call zeroext i8 @glewIsSupported(ptr noundef nonnull @.str.68)
  %.not2 = icmp eq i8 %7, 0
  br i1 %.not2, label %14, label %8

8:                                                ; preds = %6
  %9 = tail call zeroext i8 @glewIsSupported(ptr noundef nonnull @.str.69)
  %.not3 = icmp eq i8 %9, 0
  br i1 %.not3, label %14, label %10

10:                                               ; preds = %8
  %11 = tail call zeroext i8 @glewIsSupported(ptr noundef nonnull @.str.70)
  %.not4 = icmp eq i8 %11, 0
  br i1 %.not4, label %14, label %12

12:                                               ; preds = %10
  %13 = tail call zeroext i8 @glewIsSupported(ptr noundef nonnull @.str.71)
  br label %14

14:                                               ; preds = %12, %6, %8, %10
  %15 = tail call zeroext i8 @glewIsSupported(ptr noundef nonnull @.str.72)
  %.not5 = icmp eq i8 %15, 0
  br i1 %.not5, label %20, label %16

16:                                               ; preds = %14
  %17 = tail call zeroext i8 @glewIsSupported(ptr noundef nonnull @.str.74)
  %.not6 = icmp eq i8 %17, 0
  br i1 %.not6, label %20, label %18

18:                                               ; preds = %16
  tail call void @glEnable(i32 noundef 2977)
  tail call void @glDepthRange(double noundef 0.000000e+00, double noundef 1.000000e+00)
  tail call void @glHint(i32 noundef 3155, i32 noundef 4354)
  tail call void @glEnable(i32 noundef 2881)
  tail call void @glShadeModel(i32 noundef 7425)
  tail call void @glDisable(i32 noundef 2881)
  %19 = getelementptr inbounds i8, ptr %0, i64 248
  tail call void @_ZN8AlignSet12initializeGLEv(ptr noundef nonnull align 8 dereferenceable(288) %19)
  tail call void @_ZN8AlignSet6resizeEi(ptr noundef nonnull align 8 dereferenceable(288) %19, i32 noundef 800)
  br label %20

20:                                               ; preds = %16, %14, %4, %1, %18
  %.str.76.sink = phi ptr [ @.str.76, %18 ], [ @.str.65, %1 ], [ @.str.67, %4 ], [ @.str.73, %14 ], [ @.str.75, %16 ]
  %.0 = phi i1 [ true, %18 ], [ false, %1 ], [ false, %4 ], [ false, %14 ], [ false, %16 ]
  tail call void @_ZNK19MeshLabPluginLogger3logEN11GLLogStream6LevelsEPKc(ptr noundef nonnull align 8 dereferenceable(16) %2, i32 noundef 0, ptr noundef nonnull %.str.76.sink)
  ret i1 %.0
}